target datalayout = "e-m:e-p270:32:32-p271:32:32-p272:64:64-i64:64-i128:128-f80:128-n8:16:32:64-S128"
target triple = "x86_64-pc-linux-gnu"

%struct.slurm_conf_t = type { i64, ptr, i16, ptr, ptr, ptr, ptr, ptr, i16, ptr, ptr, ptr, ptr, ptr, ptr, ptr, i16, ptr, ptr, ptr, ptr, i16, ptr, ptr, ptr, i64, ptr, ptr, ptr, ptr, i16, ptr, ptr, i16, i32, ptr, i32, ptr, i32, i32, ptr, ptr, i64, i64, ptr, i16, i16, ptr, i32, i32, ptr, i32, ptr, i32, i16, i16, i16, ptr, i16, i16, ptr, ptr, i32, i16, i16, ptr, i32, i16, ptr, ptr, ptr, ptr, i16, ptr, ptr, ptr, ptr, i32, ptr, ptr, ptr, ptr, i16, i16, ptr, i32, i32, i32, i16, i16, ptr, ptr, i16, ptr, ptr, i32, i32, i32, i32, i32, i64, i32, i32, i16, ptr, ptr, i32, ptr, ptr, ptr, i16, i32, ptr, ptr, i16, ptr, ptr, i32, i16, ptr, ptr, ptr, ptr, i32, i32, i16, i16, i32, ptr, i16, ptr, i32, i32, i32, i32, i32, i32, ptr, i16, ptr, ptr, i32, i16, ptr, i32, i16, i16, ptr, ptr, ptr, i16, ptr, ptr, ptr, ptr, i16, i16, ptr, i16, ptr, i16, ptr, i16, ptr, i16, ptr, ptr, ptr, ptr, i16, ptr, ptr, ptr, i32, ptr, i32, ptr, ptr, i16, ptr, ptr, i32, i16, ptr, ptr, i16, i16, ptr, i16, ptr, ptr, ptr, i32, ptr, i16, i16, ptr, ptr, ptr, ptr, ptr, ptr, ptr, ptr, i16, i32, i16, ptr, ptr, ptr, ptr, i32, ptr, ptr, ptr, i16, ptr, ptr, ptr, i16, ptr, i16, ptr, i16, i16, ptr }
%struct.spank_task_args_t = type { ptr, i32 }

@.str.16 = private unnamed_addr constant [6 x i8] c"mgr.c\00", align 1
@slurm_conf = external global %struct.slurm_conf_t, align 8
@.str.59 = private unnamed_addr constant [29 x i8] c"Unable to reclaim privileges\00", align 1
@__func__._run_spank_func = private unnamed_addr constant [16 x i8] c"_run_spank_func\00", align 1
@.str.101 = private unnamed_addr constant [35 x i8] c"clone failed before spank call: %m\00", align 1
@.str.102 = private unnamed_addr constant [20 x i8] c"drop_privileges: %m\00", align 1

; Function Attrs: nounwind uwtable
define internal i32 @_run_spank_func(i32 noundef %0, ptr noundef %1, i32 noundef %2, ptr noundef %3) #0 {
  %5 = alloca i32, align 4
  %6 = alloca i32, align 4
  %7 = alloca ptr, align 8
  %8 = alloca i32, align 4
  %9 = alloca ptr, align 8
  %10 = alloca i32, align 4
  %11 = alloca i32, align 4
  %12 = alloca i32, align 4
  %13 = alloca ptr, align 8
  %14 = alloca i32, align 4
  %15 = alloca ptr, align 8
  %16 = alloca i32, align 4
  store i32 %0, ptr %6, align 4
  store ptr %1, ptr %7, align 8
  store i32 %2, ptr %8, align 4
  store ptr %3, ptr %9, align 8
  call void @llvm.lifetime.start.p0(i64 4, ptr %10) #12
  store i32 0, ptr %10, align 4
  %17 = load i32, ptr getelementptr inbounds nuw (%struct.slurm_conf_t, ptr @slurm_conf, i32 0, i32 34), align 4
  %18 = zext i32 %17 to i64
  %19 = and i64 %18, 32768
  %20 = icmp ne i64 %19, 0
  br i1 %20, label %21, label %110

21:                                               ; preds = %4
  call void @llvm.lifetime.start.p0(i64 4, ptr %11) #12
  store i32 -1, ptr %11, align 4
  call void @llvm.lifetime.start.p0(i64 4, ptr %12) #12
  store i32 273, ptr %12, align 4
  call void @llvm.lifetime.start.p0(i64 8, ptr %13) #12
  store ptr null, ptr %13, align 8
  call void @llvm.lifetime.start.p0(i64 4, ptr %14) #12
  store i32 0, ptr %14, align 4
  call void @llvm.lifetime.start.p0(i64 8, ptr %15) #12
  store ptr null, ptr %15, align 8
  %22 = load i32, ptr %6, align 4
  %23 = icmp eq i32 %22, 9
  br i1 %23, label %24, label %40

24:                                               ; preds = %21
  %25 = call zeroext i1 @spank_has_task_exit()
  br i1 %25, label %26, label %40

26:                                               ; preds = %24
  %27 = call ptr @slurm_xcalloc(i64 noundef 1, i64 noundef 16, i1 noundef zeroext true, i1 noundef zeroext false, ptr noundef @.str.16, i32 noundef 1038, ptr noundef @__func__._run_spank_func)
  store ptr %27, ptr %15, align 8
  %28 = load ptr, ptr %7, align 8
  %29 = load ptr, ptr %15, align 8
  %30 = getelementptr inbounds nuw %struct.spank_task_args_t, ptr %29, i32 0, i32 0
  store ptr %28, ptr %30, align 8
  %31 = load i32, ptr %8, align 4
  %32 = load ptr, ptr %15, align 8
  %33 = getelementptr inbounds nuw %struct.spank_task_args_t, ptr %32, i32 0, i32 1
  store i32 %31, ptr %33, align 8
  %34 = call ptr @slurm_xcalloc(i64 noundef 1, i64 noundef 1048576, i1 noundef zeroext true, i1 noundef zeroext false, ptr noundef @.str.16, i32 noundef 1041, ptr noundef @__func__._run_spank_func)
  store ptr %34, ptr %13, align 8
  %35 = load ptr, ptr %13, align 8
  %36 = getelementptr inbounds i8, ptr %35, i64 1048576
  %37 = load i32, ptr %12, align 4
  %38 = load ptr, ptr %15, align 8
  %39 = call i32 (ptr, ptr, i32, ptr, ...) @clone(ptr noundef @_spank_task_exit_child, ptr noundef %36, i32 noundef %37, ptr noundef %38) #12
  store i32 %39, ptr %11, align 4
  br label %81

40:                                               ; preds = %24, %21
  %41 = load i32, ptr %6, align 4
  %42 = icmp eq i32 %41, 8
  br i1 %42, label %43, label %59

43:                                               ; preds = %40
  %44 = call zeroext i1 @spank_has_task_post_fork()
  br i1 %44, label %45, label %59

45:                                               ; preds = %43
  %46 = call ptr @slurm_xcalloc(i64 noundef 1, i64 noundef 16, i1 noundef zeroext true, i1 noundef zeroext false, ptr noundef @.str.16, i32 noundef 1046, ptr noundef @__func__._run_spank_func)
  store ptr %46, ptr %15, align 8
  %47 = load ptr, ptr %7, align 8
  %48 = load ptr, ptr %15, align 8
  %49 = getelementptr inbounds nuw %struct.spank_task_args_t, ptr %48, i32 0, i32 0
  store ptr %47, ptr %49, align 8
  %50 = load i32, ptr %8, align 4
  %51 = load ptr, ptr %15, align 8
  %52 = getelementptr inbounds nuw %struct.spank_task_args_t, ptr %51, i32 0, i32 1
  store i32 %50, ptr %52, align 8
  %53 = call ptr @slurm_xcalloc(i64 noundef 1, i64 noundef 1048576, i1 noundef zeroext true, i1 noundef zeroext false, ptr noundef @.str.16, i32 noundef 1049, ptr noundef @__func__._run_spank_func)
  store ptr %53, ptr %13, align 8
  %54 = load ptr, ptr %13, align 8
  %55 = getelementptr inbounds i8, ptr %54, i64 1048576
  %56 = load i32, ptr %12, align 4
  %57 = load ptr, ptr %15, align 8
  %58 = call i32 (ptr, ptr, i32, ptr, ...) @clone(ptr noundef @_spank_task_post_fork_child, ptr noundef %55, i32 noundef %56, ptr noundef %57) #12
  store i32 %58, ptr %11, align 4
  br label %80

59:                                               ; preds = %43, %40
  %60 = load i32, ptr %6, align 4
  %61 = icmp eq i32 %60, 5
  br i1 %61, label %62, label %77

62:                                               ; preds = %59
  %63 = call zeroext i1 @spank_has_user_init()
  br i1 %63, label %64, label %77

64:                                               ; preds = %62
  %65 = load ptr, ptr %9, align 8
  %66 = call i32 @reclaim_privileges(ptr noundef %65)
  %67 = icmp slt i32 %66, 0
  br i1 %67, label %68, label %70

68:                                               ; preds = %64
  %69 = call i32 (ptr, ...) @error(ptr noundef @.str.59)
  store i32 1, ptr %10, align 4
  br label %107

70:                                               ; preds = %64
  %71 = call ptr @slurm_xcalloc(i64 noundef 1, i64 noundef 1048576, i1 noundef zeroext true, i1 noundef zeroext false, ptr noundef @.str.16, i32 noundef 1065, ptr noundef @__func__._run_spank_func)
  store ptr %71, ptr %13, align 8
  %72 = load ptr, ptr %13, align 8
  %73 = getelementptr inbounds i8, ptr %72, i64 1048576
  %74 = load i32, ptr %12, align 4
  %75 = load ptr, ptr %7, align 8
  %76 = call i32 (ptr, ptr, i32, ptr, ...) @clone(ptr noundef @_spank_user_child, ptr noundef %73, i32 noundef %74, ptr noundef %75) #12
  store i32 %76, ptr %11, align 4
  br label %79

77:                                               ; preds = %62, %59
  %78 = load i32, ptr %10, align 4
  store i32 %78, ptr %5, align 4
  store i32 1, ptr %16, align 4
  br label %109

79:                                               ; preds = %70
  br label %80

80:                                               ; preds = %79, %45
  br label %81

81:                                               ; preds = %80, %26
  %82 = load i32, ptr %11, align 4
  %83 = icmp eq i32 %82, -1
  br i1 %83, label %84, label %86

84:                                               ; preds = %81
  %85 = call i32 (ptr, ...) @error(ptr noundef @.str.101)
  store i32 -1, ptr %10, align 4
  br label %95

86:                                               ; preds = %81
  %87 = load i32, ptr %11, align 4
  %88 = call i32 @waitpid(i32 noundef %87, ptr noundef %14, i32 noundef 0)
  %89 = load i32, ptr %14, align 4
  %90 = and i32 %89, 65280
  %91 = ashr i32 %90, 8
  %92 = icmp ne i32 %91, 0
  br i1 %92, label %93, label %94

93:                                               ; preds = %86
  store i32 -1, ptr %10, align 4
  br label %94

94:                                               ; preds = %93, %86
  br label %95

95:                                               ; preds = %94, %84
  %96 = load i32, ptr %6, align 4
  %97 = icmp eq i32 %96, 5
  br i1 %97, label %98, label %106

98:                                               ; preds = %95
  %99 = load ptr, ptr %7, align 8
  %100 = load ptr, ptr %9, align 8
  %101 = call i32 @drop_privileges(ptr noundef %99, i1 noundef zeroext true, ptr noundef %100, i1 noundef zeroext true)
  %102 = icmp slt i32 %101, 0
  br i1 %102, label %103, label %105

103:                                              ; preds = %98
  %104 = call i32 (ptr, ...) @error(ptr noundef @.str.102)
  store i32 2, ptr %10, align 4
  br label %105

105:                                              ; preds = %103, %98
  br label %106

106:                                              ; preds = %105, %95
  br label %107

107:                                              ; preds = %106, %68
  call void @slurm_xfree(ptr noundef %15)
  call void @slurm_xfree(ptr noundef %13)
  %108 = load i32, ptr %10, align 4
  store i32 %108, ptr %5, align 4
  store i32 1, ptr %16, align 4
  br label %109

109:                                              ; preds = %107, %77
  call void @llvm.lifetime.end.p0(i64 8, ptr %15) #12
  call void @llvm.lifetime.end.p0(i64 4, ptr %14) #12
  call void @llvm.lifetime.end.p0(i64 8, ptr %13) #12
  call void @llvm.lifetime.end.p0(i64 4, ptr %12) #12
  call void @llvm.lifetime.end.p0(i64 4, ptr %11) #12
  br label %140

110:                                              ; preds = %4
  %111 = load i32, ptr %6, align 4
  %112 = icmp eq i32 %111, 9
  br i1 %112, label %113, label %119

113:                                              ; preds = %110
  %114 = load ptr, ptr %7, align 8
  %115 = load i32, ptr %8, align 4
  %116 = call i32 @spank_task_exit(ptr noundef %114, i32 noundef %115)
  %117 = icmp slt i32 %116, 0
  br i1 %117, label %118, label %119

118:                                              ; preds = %113
  store i32 -1, ptr %10, align 4
  br label %138

119:                                              ; preds = %113, %110
  %120 = load i32, ptr %6, align 4
  %121 = icmp eq i32 %120, 8
  br i1 %121, label %122, label %128

122:                                              ; preds = %119
  %123 = load ptr, ptr %7, align 8
  %124 = load i32, ptr %8, align 4
  %125 = call i32 @spank_task_post_fork(ptr noundef %123, i32 noundef %124)
  %126 = icmp slt i32 %125, 0
  br i1 %126, label %127, label %128

127:                                              ; preds = %122
  store i32 -1, ptr %10, align 4
  br label %137

128:                                              ; preds = %122, %119
  %129 = load i32, ptr %6, align 4
  %130 = icmp eq i32 %129, 5
  br i1 %130, label %131, label %136

131:                                              ; preds = %128
  %132 = load ptr, ptr %7, align 8
  %133 = call i32 @spank_user(ptr noundef %132)
  %134 = icmp slt i32 %133, 0
  br i1 %134, label %135, label %136

135:                                              ; preds = %131
  store i32 -1, ptr %10, align 4
  br label %136

136:                                              ; preds = %135, %131, %128
  br label %137

137:                                              ; preds = %136, %127
  br label %138

138:                                              ; preds = %137, %118
  %139 = load i32, ptr %10, align 4
  store i32 %139, ptr %5, align 4
  store i32 1, ptr %16, align 4
  br label %140

140:                                              ; preds = %138, %109
  call void @llvm.lifetime.end.p0(i64 4, ptr %10) #12
  %141 = load i32, ptr %5, align 4
  ret i32 %141
}