; Function Attrs: nounwind uwtable
define internal fastcc range(i32 -1, 3) i32 @_run_spank_func(i32 noundef range(i32 5, 10) %0, ptr noundef %1, i32 noundef %2, ptr noundef %3) unnamed_addr #0 {
  %5 = alloca ptr, align 8
  %6 = alloca i32, align 4
  %7 = alloca ptr, align 8
  %8 = load i32, ptr getelementptr inbounds nuw (i8, ptr @slurm_conf, i64 268), align 4
  %9 = and i32 %8, 32768
  %.not = icmp eq i32 %9, 0
  br i1 %.not, label %55, label %10

10:                                               ; preds = %4
  call void @llvm.lifetime.start.p0(i64 8, ptr nonnull %5) #17
  store ptr null, ptr %5, align 8
  call void @llvm.lifetime.start.p0(i64 4, ptr nonnull %6) #17
  store i32 0, ptr %6, align 4
  call void @llvm.lifetime.start.p0(i64 8, ptr nonnull %7) #17
  store ptr null, ptr %7, align 8
  switch i32 %0, label %54 [
    i32 9, label %11
    i32 8, label %19
    i32 5, label %27
  ]

11:                                               ; preds = %10
  %12 = tail call zeroext i1 @spank_has_task_exit() #17
  br i1 %12, label %13, label %54

13:                                               ; preds = %11
  %14 = tail call ptr @slurm_xcalloc(i64 noundef 1, i64 noundef 16, i1 noundef zeroext true, i1 noundef zeroext false, ptr noundef nonnull @.str.16, i32 noundef 1038, ptr noundef nonnull @__func__._run_spank_func) #17
  store ptr %14, ptr %7, align 8
  store ptr %1, ptr %14, align 8
  %15 = getelementptr inbounds nuw i8, ptr %14, i64 8
  store i32 %2, ptr %15, align 8
  %16 = tail call ptr @slurm_xcalloc(i64 noundef 1, i64 noundef 1048576, i1 noundef zeroext true, i1 noundef zeroext false, ptr noundef nonnull @.str.16, i32 noundef 1041, ptr noundef nonnull @__func__._run_spank_func) #17
  store ptr %16, ptr %5, align 8
  %17 = getelementptr inbounds nuw i8, ptr %16, i64 1048576
  %18 = tail call i32 (ptr, ptr, i32, ptr, ...) @clone(ptr noundef nonnull @_spank_task_exit_child, ptr noundef nonnull %17, i32 noundef 273, ptr noundef nonnull %14) #17
  br label %38

19:                                               ; preds = %10
  %20 = tail call zeroext i1 @spank_has_task_post_fork() #17
  br i1 %20, label %21, label %54

21:                                               ; preds = %19
  %22 = tail call ptr @slurm_xcalloc(i64 noundef 1, i64 noundef 16, i1 noundef zeroext true, i1 noundef zeroext false, ptr noundef nonnull @.str.16, i32 noundef 1046, ptr noundef nonnull @__func__._run_spank_func) #17
  store ptr %22, ptr %7, align 8
  store ptr %1, ptr %22, align 8
  %23 = getelementptr inbounds nuw i8, ptr %22, i64 8
  store i32 %2, ptr %23, align 8
  %24 = tail call ptr @slurm_xcalloc(i64 noundef 1, i64 noundef 1048576, i1 noundef zeroext true, i1 noundef zeroext false, ptr noundef nonnull @.str.16, i32 noundef 1049, ptr noundef nonnull @__func__._run_spank_func) #17
  store ptr %24, ptr %5, align 8
  %25 = getelementptr inbounds nuw i8, ptr %24, i64 1048576
  %26 = tail call i32 (ptr, ptr, i32, ptr, ...) @clone(ptr noundef nonnull @_spank_task_post_fork_child, ptr noundef nonnull %25, i32 noundef 273, ptr noundef nonnull %22) #17
  br label %38

27:                                               ; preds = %10
  %28 = tail call zeroext i1 @spank_has_user_init() #17
  br i1 %28, label %29, label %54

29:                                               ; preds = %27
  %30 = tail call i32 @reclaim_privileges(ptr noundef %3) #17
  %31 = icmp slt i32 %30, 0
  br i1 %31, label %32, label %34

32:                                               ; preds = %29
  %33 = tail call i32 (ptr, ...) @error(ptr noundef nonnull @.str.59) #17
  br label %53

34:                                               ; preds = %29
  %35 = tail call ptr @slurm_xcalloc(i64 noundef 1, i64 noundef 1048576, i1 noundef zeroext true, i1 noundef zeroext false, ptr noundef nonnull @.str.16, i32 noundef 1065, ptr noundef nonnull @__func__._run_spank_func) #17
  store ptr %35, ptr %5, align 8
  %36 = getelementptr inbounds nuw i8, ptr %35, i64 1048576
  %37 = tail call i32 (ptr, ptr, i32, ptr, ...) @clone(ptr noundef nonnull @_spank_user_child, ptr noundef nonnull %36, i32 noundef 273, ptr noundef %1) #17
  br label %38

38:                                               ; preds = %21, %34, %13
  %.028 = phi i32 [ %18, %13 ], [ %26, %21 ], [ %37, %34 ]
  %39 = icmp eq i32 %.028, -1
  br i1 %39, label %40, label %42

40:                                               ; preds = %38
  %41 = tail call i32 (ptr, ...) @error(ptr noundef nonnull @.str.101) #17
  br label %46

42:                                               ; preds = %38
  %43 = call i32 @waitpid(i32 noundef %.028, ptr noundef nonnull %6, i32 noundef 0) #17
  %44 = load i32, ptr %6, align 4
  %45 = and i32 %44, 65280
  %.not31 = icmp ne i32 %45, 0
  %spec.select = sext i1 %.not31 to i32
  br label %46

46:                                               ; preds = %42, %40
  %.130 = phi i32 [ -1, %40 ], [ %spec.select, %42 ]
  %47 = icmp eq i32 %0, 5
  br i1 %47, label %48, label %53

48:                                               ; preds = %46
  %49 = call i32 @drop_privileges(ptr noundef %1, i1 noundef zeroext true, ptr noundef %3, i1 noundef zeroext true) #17
  %50 = icmp slt i32 %49, 0
  br i1 %50, label %51, label %53

51:                                               ; preds = %48
  %52 = call i32 (ptr, ...) @error(ptr noundef nonnull @.str.102) #17
  br label %53

53:                                               ; preds = %46, %51, %48, %32
  %.029 = phi i32 [ 2, %51 ], [ %.130, %48 ], [ %.130, %46 ], [ 1, %32 ]
  call void @slurm_xfree(ptr noundef nonnull %7) #17
  call void @slurm_xfree(ptr noundef nonnull %5) #17
  br label %54

54:                                               ; preds = %19, %11, %27, %10, %53
  %.0 = phi i32 [ %.029, %53 ], [ 0, %10 ], [ 0, %27 ], [ 0, %11 ], [ 0, %19 ]
  call void @llvm.lifetime.end.p0(i64 8, ptr nonnull %7) #17
  call void @llvm.lifetime.end.p0(i64 4, ptr nonnull %6) #17
  call void @llvm.lifetime.end.p0(i64 8, ptr nonnull %5) #17
  br label %62

55:                                               ; preds = %4
  switch i32 %0, label %62 [
    i32 9, label %56
    i32 8, label %58
    i32 5, label %60
  ]

56:                                               ; preds = %55
  %57 = tail call i32 @spank_task_exit(ptr noundef %1, i32 noundef %2) #17
  %.lobit36 = ashr i32 %57, 31
  br label %62

58:                                               ; preds = %55
  %59 = tail call i32 @spank_task_post_fork(ptr noundef %1, i32 noundef %2) #17
  %.lobit35 = ashr i32 %59, 31
  br label %62

60:                                               ; preds = %55
  %61 = tail call i32 @spank_user(ptr noundef %1) #17
  %.lobit = ashr i32 %61, 31
  br label %62

62:                                               ; preds = %58, %56, %60, %55, %54
  %.1 = phi i32 [ %.0, %54 ], [ 0, %55 ], [ %.lobit, %60 ], [ %.lobit36, %56 ], [ %.lobit35, %58 ]
  ret i32 %.1
}